target datalayout = "e-m:e-p270:32:32-p271:32:32-p272:64:64-i64:64-i128:128-f80:128-n8:16:32:64-S128"
target triple = "x86_64-pc-linux-gnu"

%struct.cbb_st = type { ptr, ptr, i64, i8, i8, i8 }

; Function Attrs: mustprogress uwtable
define internal noundef zeroext i1 @_ZL12TestCBBFixedv() #2 {
  %1 = alloca i1, align 1
  %2 = alloca %struct.cbb_st, align 8
  %3 = alloca [1 x i8], align 1
  %4 = alloca ptr, align 8
  %5 = alloca i64, align 8
  %6 = alloca i32, align 4
  call void @llvm.lifetime.start.p0(i64 32, ptr %2) #15
  call void @llvm.lifetime.start.p0(i64 1, ptr %3) #15
  call void @llvm.lifetime.start.p0(i64 8, ptr %4) #15
  call void @llvm.lifetime.start.p0(i64 8, ptr %5) #15
  %7 = call i32 @CBB_init_fixed(ptr noundef %2, ptr noundef null, i64 noundef 0)
  %8 = icmp ne i32 %7, 0
  br i1 %8, label %9, label %21

9:                                                ; preds = %0
  %10 = call i32 @CBB_add_u8(ptr noundef %2, i8 noundef zeroext 1)
  %11 = icmp ne i32 %10, 0
  br i1 %11, label %21, label %12

12:                                               ; preds = %9
  %13 = call i32 @CBB_finish(ptr noundef %2, ptr noundef %4, ptr noundef %5)
  %14 = icmp ne i32 %13, 0
  br i1 %14, label %15, label %21

15:                                               ; preds = %12
  %16 = load ptr, ptr %4, align 8, !tbaa !15
  %17 = icmp ne ptr %16, null
  br i1 %17, label %21, label %18

18:                                               ; preds = %15
  %19 = load i64, ptr %5, align 8, !tbaa !13
  %20 = icmp ne i64 %19, 0
  br i1 %20, label %21, label %22

21:                                               ; preds = %18, %15, %12, %9, %0
  store i1 false, ptr %1, align 1
  store i32 1, ptr %6, align 4
  br label %49

22:                                               ; preds = %18
  %23 = getelementptr inbounds [1 x i8], ptr %3, i64 0, i64 0
  %24 = call i32 @CBB_init_fixed(ptr noundef %2, ptr noundef %23, i64 noundef 1)
  %25 = icmp ne i32 %24, 0
  br i1 %25, label %26, label %47

26:                                               ; preds = %22
  %27 = call i32 @CBB_add_u8(ptr noundef %2, i8 noundef zeroext 1)
  %28 = icmp ne i32 %27, 0
  br i1 %28, label %29, label %47

29:                                               ; preds = %26
  %30 = call i32 @CBB_add_u8(ptr noundef %2, i8 noundef zeroext 2)
  %31 = icmp ne i32 %30, 0
  br i1 %31, label %47, label %32

32:                                               ; preds = %29
  %33 = call i32 @CBB_finish(ptr noundef %2, ptr noundef %4, ptr noundef %5)
  %34 = icmp ne i32 %33, 0
  br i1 %34, label %35, label %47

35:                                               ; preds = %32
  %36 = load ptr, ptr %4, align 8, !tbaa !15
  %37 = getelementptr inbounds [1 x i8], ptr %3, i64 0, i64 0
  %38 = icmp ne ptr %36, %37
  br i1 %38, label %47, label %39

39:                                               ; preds = %35
  %40 = load i64, ptr %5, align 8, !tbaa !13
  %41 = icmp ne i64 %40, 1
  br i1 %41, label %47, label %42

42:                                               ; preds = %39
  %43 = getelementptr inbounds [1 x i8], ptr %3, i64 0, i64 0
  %44 = load i8, ptr %43, align 1, !tbaa !6
  %45 = zext i8 %44 to i32
  %46 = icmp ne i32 %45, 1
  br i1 %46, label %47, label %48

47:                                               ; preds = %42, %39, %35, %32, %29, %26, %22
  store i1 false, ptr %1, align 1
  store i32 1, ptr %6, align 4
  br label %49

48:                                               ; preds = %42
  store i1 true, ptr %1, align 1
  store i32 1, ptr %6, align 4
  br label %49

49:                                               ; preds = %48, %47, %21
  call void @llvm.lifetime.end.p0(i64 8, ptr %5) #15
  call void @llvm.lifetime.end.p0(i64 8, ptr %4) #15
  call void @llvm.lifetime.end.p0(i64 1, ptr %3) #15
  call void @llvm.lifetime.end.p0(i64 32, ptr %2) #15
  %50 = load i1, ptr %1, align 1
  ret i1 %50
}