; Function Attrs: mustprogress norecurse uwtable
define internal fastcc noundef zeroext i1 @_ZL12TestCBBFixedv() unnamed_addr #0 {
  %1 = alloca %struct.cbb_st, align 8
  %2 = alloca [1 x i8], align 1
  %3 = alloca ptr, align 8
  %4 = alloca i64, align 8
  call void @llvm.lifetime.start.p0(i64 32, ptr nonnull %1) #12
  call void @llvm.lifetime.start.p0(i64 1, ptr nonnull %2) #12
  call void @llvm.lifetime.start.p0(i64 8, ptr nonnull %3) #12
  call void @llvm.lifetime.start.p0(i64 8, ptr nonnull %4) #12
  %5 = call i32 @CBB_init_fixed(ptr noundef nonnull %1, ptr noundef null, i64 noundef 0)
  %.not = icmp eq i32 %5, 0
  br i1 %.not, label %30, label %6

6:                                                ; preds = %0
  %7 = call i32 @CBB_add_u8(ptr noundef nonnull %1, i8 noundef zeroext 1)
  %.not13 = icmp eq i32 %7, 0
  br i1 %.not13, label %8, label %30

8:                                                ; preds = %6
  %9 = call i32 @CBB_finish(ptr noundef nonnull %1, ptr noundef nonnull %3, ptr noundef nonnull %4)
  %10 = icmp eq i32 %9, 0
  %11 = load ptr, ptr %3, align 8
  %12 = icmp ne ptr %11, null
  %or.cond = select i1 %10, i1 true, i1 %12
  %13 = load i64, ptr %4, align 8
  %14 = icmp ne i64 %13, 0
  %or.cond3 = select i1 %or.cond, i1 true, i1 %14
  br i1 %or.cond3, label %30, label %15

15:                                               ; preds = %8
  %16 = call i32 @CBB_init_fixed(ptr noundef nonnull %1, ptr noundef nonnull %2, i64 noundef 1)
  %.not14 = icmp eq i32 %16, 0
  br i1 %.not14, label %30, label %17

17:                                               ; preds = %15
  %18 = call i32 @CBB_add_u8(ptr noundef nonnull %1, i8 noundef zeroext 1)
  %.not15 = icmp eq i32 %18, 0
  br i1 %.not15, label %30, label %19

19:                                               ; preds = %17
  %20 = call i32 @CBB_add_u8(ptr noundef nonnull %1, i8 noundef zeroext 2)
  %.not16 = icmp eq i32 %20, 0
  br i1 %.not16, label %21, label %30

21:                                               ; preds = %19
  %22 = call i32 @CBB_finish(ptr noundef nonnull %1, ptr noundef nonnull %3, ptr noundef nonnull %4)
  %23 = icmp ne i32 %22, 0
  %24 = load ptr, ptr %3, align 8
  %25 = icmp eq ptr %24, %2
  %or.cond6.not22 = select i1 %23, i1 %25, i1 false
  %26 = load i64, ptr %4, align 8
  %27 = icmp eq i64 %26, 1
  %or.cond8.not19 = select i1 %or.cond6.not22, i1 %27, i1 false
  %28 = load i8, ptr %2, align 1
  %29 = icmp eq i8 %28, 1
  %or.cond12.not = select i1 %or.cond8.not19, i1 %29, i1 false
  br label %30

30:                                               ; preds = %21, %15, %17, %19, %0, %6, %8
  %.0 = phi i1 [ false, %8 ], [ false, %6 ], [ false, %0 ], [ false, %19 ], [ false, %17 ], [ false, %15 ], [ %or.cond12.not, %21 ]
  call void @llvm.lifetime.end.p0(i64 8, ptr nonnull %4) #12
  call void @llvm.lifetime.end.p0(i64 8, ptr nonnull %3) #12
  call void @llvm.lifetime.end.p0(i64 1, ptr nonnull %2) #12
  call void @llvm.lifetime.end.p0(i64 32, ptr nonnull %1) #12
  ret i1 %.0
}